; Function Attrs: nounwind uwtable
define zeroext i8 @wolfSSL_SNI_Status(ptr noundef readonly captures(address_is_null) %0, i8 noundef zeroext %1) local_unnamed_addr #0 {
  %.not = icmp eq ptr %0, null
  br i1 %.not, label %6, label %3

3:                                                ; preds = %2
  %4 = getelementptr inbounds nuw i8, ptr %0, i64 1224
  %5 = load ptr, ptr %4, align 8, !tbaa !165
  br label %6

6:                                                ; preds = %2, %3
  %7 = phi ptr [ %5, %3 ], [ null, %2 ]
  %8 = tail call zeroext i8 @TLSX_SNI_Status(ptr noundef %7, i8 noundef zeroext %1) #22
  ret i8 %8
}